target datalayout = "e-m:e-p270:32:32-p271:32:32-p272:64:64-i64:64-i128:128-f80:128-n8:16:32:64-S128"
target triple = "x86_64-pc-linux-gnu"

%struct.__va_list_tag = type { i32, i32, ptr, ptr }

@hf_mswsp_csortaggregset_count = internal global i32 0, align 4
@ett_CSortAggregSet = internal global i32 0, align 4
@.str.1345 = private unnamed_addr constant [13 x i8] c"SortKeys[%u]\00", align 1

; Function Attrs: null_pointer_is_valid sspstrong uwtable
define internal i32 @parse_CSortAggregSet(ptr noundef %0, i32 noundef %1, ptr noundef %2, ptr noundef %3, ptr noundef %4, ...) #0 {
  %6 = alloca ptr, align 8
  %7 = alloca i32, align 4
  %8 = alloca ptr, align 8
  %9 = alloca ptr, align 8
  %10 = alloca ptr, align 8
  %11 = alloca i32, align 4
  %12 = alloca i32, align 4
  %13 = alloca ptr, align 8
  %14 = alloca ptr, align 8
  %15 = alloca ptr, align 8
  %16 = alloca [1 x %struct.__va_list_tag], align 16
  store ptr %0, ptr %6, align 8
  store i32 %1, ptr %7, align 4
  store ptr %2, ptr %8, align 8
  store ptr %3, ptr %9, align 8
  store ptr %4, ptr %10, align 8
  call void @llvm.lifetime.start.p0(i64 4, ptr %11) #11
  call void @llvm.lifetime.start.p0(i64 4, ptr %12) #11
  call void @llvm.lifetime.start.p0(i64 8, ptr %13) #11
  call void @llvm.lifetime.start.p0(i64 8, ptr %14) #11
  call void @llvm.lifetime.start.p0(i64 8, ptr %15) #11
  call void @llvm.lifetime.start.p0(i64 24, ptr %16) #11
  %17 = getelementptr inbounds [1 x %struct.__va_list_tag], ptr %16, i64 0, i64 0
  call void @llvm.va_start.p0(ptr %17)
  %18 = call ptr @wmem_packet_scope()
  %19 = load ptr, ptr %10, align 8
  %20 = getelementptr inbounds [1 x %struct.__va_list_tag], ptr %16, i64 0, i64 0
  %21 = call noalias ptr @wmem_strdup_vprintf(ptr noundef %18, ptr noundef %19, ptr noundef %20)
  store ptr %21, ptr %15, align 8
  %22 = getelementptr inbounds [1 x %struct.__va_list_tag], ptr %16, i64 0, i64 0
  call void @llvm.va_end.p0(ptr %22)
  %23 = load ptr, ptr %8, align 8
  %24 = load ptr, ptr %6, align 8
  %25 = load i32, ptr %7, align 4
  %26 = load i32, ptr @ett_CSortAggregSet, align 4
  %27 = load ptr, ptr %15, align 8
  %28 = call ptr @proto_tree_add_subtree(ptr noundef %23, ptr noundef %24, i32 noundef %25, i32 noundef 0, i32 noundef %26, ptr noundef %13, ptr noundef %27)
  store ptr %28, ptr %14, align 8
  %29 = load ptr, ptr %6, align 8
  %30 = load i32, ptr %7, align 4
  %31 = call i32 @tvb_get_letohl(ptr noundef %29, i32 noundef %30)
  store i32 %31, ptr %11, align 4
  %32 = load ptr, ptr %14, align 8
  %33 = load i32, ptr @hf_mswsp_csortaggregset_count, align 4
  %34 = load ptr, ptr %6, align 8
  %35 = load i32, ptr %7, align 4
  %36 = load i32, ptr %11, align 4
  %37 = call ptr @proto_tree_add_uint(ptr noundef %32, i32 noundef %33, ptr noundef %34, i32 noundef %35, i32 noundef 4, i32 noundef %36)
  %38 = load i32, ptr %7, align 4
  %39 = add i32 %38, 4
  store i32 %39, ptr %7, align 4
  store i32 0, ptr %12, align 4
  br label %40

40:                                               ; preds = %51, %5
  %41 = load i32, ptr %12, align 4
  %42 = load i32, ptr %11, align 4
  %43 = icmp ult i32 %41, %42
  br i1 %43, label %44, label %54

44:                                               ; preds = %40
  %45 = load ptr, ptr %6, align 8
  %46 = load i32, ptr %7, align 4
  %47 = load ptr, ptr %14, align 8
  %48 = load ptr, ptr %9, align 8
  %49 = load i32, ptr %12, align 4
  %50 = call i32 (ptr, i32, ptr, ptr, ptr, ...) @parse_CAggregSortKey(ptr noundef %45, i32 noundef %46, ptr noundef %47, ptr noundef %48, ptr noundef @.str.1345, i32 noundef %49)
  store i32 %50, ptr %7, align 4
  br label %51

51:                                               ; preds = %44
  %52 = load i32, ptr %12, align 4
  %53 = add i32 %52, 1
  store i32 %53, ptr %12, align 4
  br label %40, !llvm.loop !28

54:                                               ; preds = %40
  %55 = load ptr, ptr %13, align 8
  %56 = load ptr, ptr %6, align 8
  %57 = load i32, ptr %7, align 4
  call void @proto_item_set_end(ptr noundef %55, ptr noundef %56, i32 noundef %57)
  %58 = load i32, ptr %7, align 4
  call void @llvm.lifetime.end.p0(i64 24, ptr %16) #11
  call void @llvm.lifetime.end.p0(i64 8, ptr %15) #11
  call void @llvm.lifetime.end.p0(i64 8, ptr %14) #11
  call void @llvm.lifetime.end.p0(i64 8, ptr %13) #11
  call void @llvm.lifetime.end.p0(i64 4, ptr %12) #11
  call void @llvm.lifetime.end.p0(i64 4, ptr %11) #11
  ret i32 %58
}